target datalayout = "e-m:e-p270:32:32-p271:32:32-p272:64:64-i64:64-i128:128-f80:128-n8:16:32:64-S128"
target triple = "x86_64-pc-linux-gnu"

%struct.WebPIDecoder = type { i32, %struct.WebPDecParams, i32, ptr, %struct.VP8Io, %struct.MemBuffer, %struct.WebPDecBuffer, ptr, i64, i32 }
%struct.WebPDecParams = type { ptr, ptr, ptr, ptr, i32, ptr, ptr, ptr, ptr, ptr, ptr, ptr, ptr, ptr }
%struct.VP8Io = type { i32, i32, i32, i32, i32, ptr, ptr, ptr, i32, i32, ptr, ptr, ptr, ptr, i32, i64, ptr, i32, i32, i32, i32, i32, i32, i32, i32, i32, ptr }
%struct.MemBuffer = type { i32, i64, i64, i64, ptr, i64, ptr }
%struct.WebPDecBuffer = type { i32, i32, i32, i32, %union.anon, [4 x i32], ptr }
%union.anon = type { %struct.WebPYUVABuffer }
%struct.WebPYUVABuffer = type { ptr, ptr, ptr, ptr, i32, i32, i32, i32, i64, i64, i64, i64 }
%struct.VP8Decoder = type { i32, i32, ptr, %struct.VP8BitReader, i32, %struct.VP8FrameHeader, %struct.VP8PictureHeader, %struct.VP8FilterHeader, %struct.VP8SegmentHeader, %struct.WebPWorker, i32, i32, i32, %struct.VP8ThreadContext, i32, i32, i32, i32, i32, i32, i32, [8 x %struct.VP8BitReader], i32, %struct.VP8Random, [4 x %struct.VP8QuantMatrix], %struct.VP8Proba, i32, i8, ptr, [4 x i8], ptr, ptr, ptr, ptr, ptr, ptr, ptr, i32, i32, ptr, i64, i32, i32, ptr, i32, [4 x [2 x %struct.VP8FInfo]], ptr, ptr, i64, i32, ptr, ptr, ptr, i32 }
%struct.VP8BitReader = type { i64, i32, i32, ptr, ptr, ptr, i32 }
%struct.VP8FrameHeader = type { i8, i8, i8, i32 }
%struct.VP8PictureHeader = type { i16, i16, i8, i8, i8, i8 }
%struct.VP8FilterHeader = type { i32, i32, i32, i32, [4 x i32], [4 x i32] }
%struct.VP8SegmentHeader = type { i32, i32, i32, [4 x i8], [4 x i8] }
%struct.WebPWorker = type { ptr, i32, ptr, ptr, ptr, i32 }
%struct.VP8ThreadContext = type { i32, i32, i32, ptr, ptr, %struct.VP8Io }
%struct.VP8Random = type { i32, i32, [55 x i32], i32 }
%struct.VP8QuantMatrix = type { [2 x i32], [2 x i32], [2 x i32], i32, i32 }
%struct.VP8Proba = type { [3 x i8], [4 x [8 x %struct.VP8BandProbas]], [4 x [17 x ptr]] }
%struct.VP8BandProbas = type { [3 x [11 x i8]] }
%struct.VP8FInfo = type { i8, i8, i8, i8 }

; Function Attrs: inlinehint nounwind uwtable
define internal i64 @MemDataSize(ptr noundef %0) #3 {
  %2 = alloca ptr, align 8
  store ptr %0, ptr %2, align 8, !tbaa !35
  %3 = load ptr, ptr %2, align 8, !tbaa !35
  %4 = getelementptr inbounds nuw %struct.MemBuffer, ptr %3, i32 0, i32 2
  %5 = load i64, ptr %4, align 8, !tbaa !59
  %6 = load ptr, ptr %2, align 8, !tbaa !35
  %7 = getelementptr inbounds nuw %struct.MemBuffer, ptr %6, i32 0, i32 1
  %8 = load i64, ptr %7, align 8, !tbaa !45
  %9 = sub i64 %5, %8
  ret i64 %9
}

; Function Attrs: nounwind uwtable
define internal i32 @NeedCompressedAlpha(ptr noundef %0) #0 {
  %2 = alloca i32, align 4
  %3 = alloca ptr, align 8
  %4 = alloca ptr, align 8
  store ptr %0, ptr %3, align 8, !tbaa !10
  %5 = load ptr, ptr %3, align 8, !tbaa !10
  %6 = getelementptr inbounds nuw %struct.WebPIDecoder, ptr %5, i32 0, i32 0
  %7 = load i32, ptr %6, align 8, !tbaa !12
  %8 = icmp eq i32 %7, 0
  br i1 %8, label %9, label %10

9:                                                ; preds = %1
  store i32 0, ptr %2, align 4
  br label %33

10:                                               ; preds = %1
  %11 = load ptr, ptr %3, align 8, !tbaa !10
  %12 = getelementptr inbounds nuw %struct.WebPIDecoder, ptr %11, i32 0, i32 2
  %13 = load i32, ptr %12, align 8, !tbaa !34
  %14 = icmp ne i32 %13, 0
  br i1 %14, label %15, label %16

15:                                               ; preds = %10
  store i32 0, ptr %2, align 4
  br label %33

16:                                               ; preds = %10
  call void @llvm.lifetime.start.p0(i64 8, ptr %4) #6
  %17 = load ptr, ptr %3, align 8, !tbaa !10
  %18 = getelementptr inbounds nuw %struct.WebPIDecoder, ptr %17, i32 0, i32 3
  %19 = load ptr, ptr %18, align 8, !tbaa !33
  store ptr %19, ptr %4, align 8, !tbaa !43
  %20 = load ptr, ptr %4, align 8, !tbaa !43
  %21 = getelementptr inbounds nuw %struct.VP8Decoder, ptr %20, i32 0, i32 47
  %22 = load ptr, ptr %21, align 8, !tbaa !46
  %23 = icmp ne ptr %22, null
  br i1 %23, label %24, label %30

24:                                               ; preds = %16
  %25 = load ptr, ptr %4, align 8, !tbaa !43
  %26 = getelementptr inbounds nuw %struct.VP8Decoder, ptr %25, i32 0, i32 49
  %27 = load i32, ptr %26, align 8, !tbaa !75
  %28 = icmp ne i32 %27, 0
  %29 = xor i1 %28, true
  br label %30

30:                                               ; preds = %24, %16
  %31 = phi i1 [ false, %16 ], [ %29, %24 ]
  %32 = zext i1 %31 to i32
  store i32 %32, ptr %2, align 4
  call void @llvm.lifetime.end.p0(i64 8, ptr %4) #6
  br label %33

33:                                               ; preds = %30, %15, %9
  %34 = load i32, ptr %2, align 4
  ret i32 %34
}

; Function Attrs: nounwind uwtable
define internal i32 @AppendToMemBuffer(ptr noundef %0, ptr noundef %1, i64 noundef %2) #0 {
  %4 = alloca i32, align 4
  %5 = alloca ptr, align 8
  %6 = alloca ptr, align 8
  %7 = alloca i64, align 8
  %8 = alloca ptr, align 8
  %9 = alloca ptr, align 8
  %10 = alloca i32, align 4
  %11 = alloca ptr, align 8
  %12 = alloca ptr, align 8
  %13 = alloca i32, align 4
  %14 = alloca i64, align 8
  %15 = alloca i64, align 8
  %16 = alloca i64, align 8
  %17 = alloca i64, align 8
  %18 = alloca ptr, align 8
  store ptr %0, ptr %5, align 8, !tbaa !10
  store ptr %1, ptr %6, align 8, !tbaa !28
  store i64 %2, ptr %7, align 8, !tbaa !29
  call void @llvm.lifetime.start.p0(i64 8, ptr %8) #6
  %19 = load ptr, ptr %5, align 8, !tbaa !10
  %20 = getelementptr inbounds nuw %struct.WebPIDecoder, ptr %19, i32 0, i32 3
  %21 = load ptr, ptr %20, align 8, !tbaa !33
  store ptr %21, ptr %8, align 8, !tbaa !43
  call void @llvm.lifetime.start.p0(i64 8, ptr %9) #6
  %22 = load ptr, ptr %5, align 8, !tbaa !10
  %23 = getelementptr inbounds nuw %struct.WebPIDecoder, ptr %22, i32 0, i32 5
  store ptr %23, ptr %9, align 8, !tbaa !35
  call void @llvm.lifetime.start.p0(i64 4, ptr %10) #6
  %24 = load ptr, ptr %5, align 8, !tbaa !10
  %25 = call i32 @NeedCompressedAlpha(ptr noundef %24)
  store i32 %25, ptr %10, align 4, !tbaa !39
  call void @llvm.lifetime.start.p0(i64 8, ptr %11) #6
  %26 = load ptr, ptr %9, align 8, !tbaa !35
  %27 = getelementptr inbounds nuw %struct.MemBuffer, ptr %26, i32 0, i32 4
  %28 = load ptr, ptr %27, align 8, !tbaa !37
  %29 = icmp eq ptr %28, null
  br i1 %29, label %30, label %31

30:                                               ; preds = %3
  br label %39

31:                                               ; preds = %3
  %32 = load ptr, ptr %9, align 8, !tbaa !35
  %33 = getelementptr inbounds nuw %struct.MemBuffer, ptr %32, i32 0, i32 4
  %34 = load ptr, ptr %33, align 8, !tbaa !37
  %35 = load ptr, ptr %9, align 8, !tbaa !35
  %36 = getelementptr inbounds nuw %struct.MemBuffer, ptr %35, i32 0, i32 1
  %37 = load i64, ptr %36, align 8, !tbaa !45
  %38 = getelementptr inbounds nuw i8, ptr %34, i64 %37
  br label %39

39:                                               ; preds = %31, %30
  %40 = phi ptr [ null, %30 ], [ %38, %31 ]
  store ptr %40, ptr %11, align 8, !tbaa !28
  call void @llvm.lifetime.start.p0(i64 8, ptr %12) #6
  %41 = load i32, ptr %10, align 4, !tbaa !39
  %42 = icmp ne i32 %41, 0
  br i1 %42, label %43, label %47

43:                                               ; preds = %39
  %44 = load ptr, ptr %8, align 8, !tbaa !43
  %45 = getelementptr inbounds nuw %struct.VP8Decoder, ptr %44, i32 0, i32 47
  %46 = load ptr, ptr %45, align 8, !tbaa !46
  br label %49

47:                                               ; preds = %39
  %48 = load ptr, ptr %11, align 8, !tbaa !28
  br label %49

49:                                               ; preds = %47, %43
  %50 = phi ptr [ %46, %43 ], [ %48, %47 ]
  store ptr %50, ptr %12, align 8, !tbaa !28
  %51 = load i64, ptr %7, align 8, !tbaa !29
  %52 = icmp ugt i64 %51, 4294967286
  br i1 %52, label %53, label %54

53:                                               ; preds = %49
  store i32 0, ptr %4, align 4
  store i32 1, ptr %13, align 4
  br label %139

54:                                               ; preds = %49
  %55 = load ptr, ptr %9, align 8, !tbaa !35
  %56 = getelementptr inbounds nuw %struct.MemBuffer, ptr %55, i32 0, i32 2
  %57 = load i64, ptr %56, align 8, !tbaa !59
  %58 = load i64, ptr %7, align 8, !tbaa !29
  %59 = add i64 %57, %58
  %60 = load ptr, ptr %9, align 8, !tbaa !35
  %61 = getelementptr inbounds nuw %struct.MemBuffer, ptr %60, i32 0, i32 3
  %62 = load i64, ptr %61, align 8, !tbaa !60
  %63 = icmp ugt i64 %59, %62
  br i1 %63, label %64, label %112

64:                                               ; preds = %54
  call void @llvm.lifetime.start.p0(i64 8, ptr %14) #6
  %65 = load ptr, ptr %11, align 8, !tbaa !28
  %66 = load ptr, ptr %12, align 8, !tbaa !28
  %67 = ptrtoint ptr %65 to i64
  %68 = ptrtoint ptr %66 to i64
  %69 = sub i64 %67, %68
  store i64 %69, ptr %14, align 8, !tbaa !29
  call void @llvm.lifetime.start.p0(i64 8, ptr %15) #6
  %70 = load ptr, ptr %9, align 8, !tbaa !35
  %71 = call i64 @MemDataSize(ptr noundef %70)
  %72 = load i64, ptr %14, align 8, !tbaa !29
  %73 = add i64 %71, %72
  store i64 %73, ptr %15, align 8, !tbaa !29
  call void @llvm.lifetime.start.p0(i64 8, ptr %16) #6
  %74 = load i64, ptr %15, align 8, !tbaa !29
  %75 = load i64, ptr %7, align 8, !tbaa !29
  %76 = add i64 %74, %75
  store i64 %76, ptr %16, align 8, !tbaa !29
  call void @llvm.lifetime.start.p0(i64 8, ptr %17) #6
  %77 = load i64, ptr %16, align 8, !tbaa !29
  %78 = add i64 %77, 4096
  %79 = sub i64 %78, 1
  %80 = and i64 %79, -4096
  store i64 %80, ptr %17, align 8, !tbaa !29
  call void @llvm.lifetime.start.p0(i64 8, ptr %18) #6
  %81 = load i64, ptr %17, align 8, !tbaa !29
  %82 = call ptr @WebPSafeMalloc(i64 noundef %81, i64 noundef 1)
  store ptr %82, ptr %18, align 8, !tbaa !28
  %83 = load ptr, ptr %18, align 8, !tbaa !28
  %84 = icmp eq ptr %83, null
  br i1 %84, label %85, label %86

85:                                               ; preds = %64
  store i32 0, ptr %4, align 4
  store i32 1, ptr %13, align 4
  br label %109

86:                                               ; preds = %64
  %87 = load ptr, ptr %12, align 8, !tbaa !28
  %88 = icmp ne ptr %87, null
  br i1 %88, label %89, label %93

89:                                               ; preds = %86
  %90 = load ptr, ptr %18, align 8, !tbaa !28
  %91 = load ptr, ptr %12, align 8, !tbaa !28
  %92 = load i64, ptr %15, align 8, !tbaa !29
  call void @llvm.memcpy.p0.p0.i64(ptr align 1 %90, ptr align 1 %91, i64 %92, i1 false)
  br label %93

93:                                               ; preds = %89, %86
  %94 = load ptr, ptr %9, align 8, !tbaa !35
  %95 = getelementptr inbounds nuw %struct.MemBuffer, ptr %94, i32 0, i32 4
  %96 = load ptr, ptr %95, align 8, !tbaa !37
  call void @WebPSafeFree(ptr noundef %96)
  %97 = load ptr, ptr %18, align 8, !tbaa !28
  %98 = load ptr, ptr %9, align 8, !tbaa !35
  %99 = getelementptr inbounds nuw %struct.MemBuffer, ptr %98, i32 0, i32 4
  store ptr %97, ptr %99, align 8, !tbaa !37
  %100 = load i64, ptr %17, align 8, !tbaa !29
  %101 = load ptr, ptr %9, align 8, !tbaa !35
  %102 = getelementptr inbounds nuw %struct.MemBuffer, ptr %101, i32 0, i32 3
  store i64 %100, ptr %102, align 8, !tbaa !60
  %103 = load i64, ptr %14, align 8, !tbaa !29
  %104 = load ptr, ptr %9, align 8, !tbaa !35
  %105 = getelementptr inbounds nuw %struct.MemBuffer, ptr %104, i32 0, i32 1
  store i64 %103, ptr %105, align 8, !tbaa !45
  %106 = load i64, ptr %15, align 8, !tbaa !29
  %107 = load ptr, ptr %9, align 8, !tbaa !35
  %108 = getelementptr inbounds nuw %struct.MemBuffer, ptr %107, i32 0, i32 2
  store i64 %106, ptr %108, align 8, !tbaa !59
  store i32 0, ptr %13, align 4
  br label %109

109:                                              ; preds = %93, %85
  call void @llvm.lifetime.end.p0(i64 8, ptr %18) #6
  call void @llvm.lifetime.end.p0(i64 8, ptr %17) #6
  call void @llvm.lifetime.end.p0(i64 8, ptr %16) #6
  call void @llvm.lifetime.end.p0(i64 8, ptr %15) #6
  call void @llvm.lifetime.end.p0(i64 8, ptr %14) #6
  %110 = load i32, ptr %13, align 4
  switch i32 %110, label %139 [
    i32 0, label %111
  ]

111:                                              ; preds = %109
  br label %112

112:                                              ; preds = %111, %54
  %113 = load ptr, ptr %9, align 8, !tbaa !35
  %114 = getelementptr inbounds nuw %struct.MemBuffer, ptr %113, i32 0, i32 4
  %115 = load ptr, ptr %114, align 8, !tbaa !37
  %116 = load ptr, ptr %9, align 8, !tbaa !35
  %117 = getelementptr inbounds nuw %struct.MemBuffer, ptr %116, i32 0, i32 2
  %118 = load i64, ptr %117, align 8, !tbaa !59
  %119 = getelementptr inbounds nuw i8, ptr %115, i64 %118
  %120 = load ptr, ptr %6, align 8, !tbaa !28
  %121 = load i64, ptr %7, align 8, !tbaa !29
  call void @llvm.memcpy.p0.p0.i64(ptr align 1 %119, ptr align 1 %120, i64 %121, i1 false)
  %122 = load i64, ptr %7, align 8, !tbaa !29
  %123 = load ptr, ptr %9, align 8, !tbaa !35
  %124 = getelementptr inbounds nuw %struct.MemBuffer, ptr %123, i32 0, i32 2
  %125 = load i64, ptr %124, align 8, !tbaa !59
  %126 = add i64 %125, %122
  store i64 %126, ptr %124, align 8, !tbaa !59
  %127 = load ptr, ptr %5, align 8, !tbaa !10
  %128 = load ptr, ptr %9, align 8, !tbaa !35
  %129 = getelementptr inbounds nuw %struct.MemBuffer, ptr %128, i32 0, i32 4
  %130 = load ptr, ptr %129, align 8, !tbaa !37
  %131 = load ptr, ptr %9, align 8, !tbaa !35
  %132 = getelementptr inbounds nuw %struct.MemBuffer, ptr %131, i32 0, i32 1
  %133 = load i64, ptr %132, align 8, !tbaa !45
  %134 = getelementptr inbounds nuw i8, ptr %130, i64 %133
  %135 = load ptr, ptr %11, align 8, !tbaa !28
  %136 = ptrtoint ptr %134 to i64
  %137 = ptrtoint ptr %135 to i64
  %138 = sub i64 %136, %137
  call void @DoRemap(ptr noundef %127, i64 noundef %138)
  store i32 1, ptr %4, align 4
  store i32 1, ptr %13, align 4
  br label %139

139:                                              ; preds = %112, %109, %53
  call void @llvm.lifetime.end.p0(i64 8, ptr %12) #6
  call void @llvm.lifetime.end.p0(i64 8, ptr %11) #6
  call void @llvm.lifetime.end.p0(i64 4, ptr %10) #6
  call void @llvm.lifetime.end.p0(i64 8, ptr %9) #6
  call void @llvm.lifetime.end.p0(i64 8, ptr %8) #6
  %140 = load i32, ptr %4, align 4
  ret i32 %140
}

; Function Attrs: nounwind uwtable
define internal i32 @CheckMemBufferMode(ptr noundef %0, i32 noundef %1) #0 {
  %3 = alloca i32, align 4
  %4 = alloca ptr, align 8
  %5 = alloca i32, align 4
  store ptr %0, ptr %4, align 8, !tbaa !35
  store i32 %1, ptr %5, align 4, !tbaa !39
  %6 = load ptr, ptr %4, align 8, !tbaa !35
  %7 = getelementptr inbounds nuw %struct.MemBuffer, ptr %6, i32 0, i32 0
  %8 = load i32, ptr %7, align 8, !tbaa !36
  %9 = icmp eq i32 %8, 0
  br i1 %9, label %10, label %14

10:                                               ; preds = %2
  %11 = load i32, ptr %5, align 4, !tbaa !39
  %12 = load ptr, ptr %4, align 8, !tbaa !35
  %13 = getelementptr inbounds nuw %struct.MemBuffer, ptr %12, i32 0, i32 0
  store i32 %11, ptr %13, align 8, !tbaa !36
  br label %22

14:                                               ; preds = %2
  %15 = load ptr, ptr %4, align 8, !tbaa !35
  %16 = getelementptr inbounds nuw %struct.MemBuffer, ptr %15, i32 0, i32 0
  %17 = load i32, ptr %16, align 8, !tbaa !36
  %18 = load i32, ptr %5, align 4, !tbaa !39
  %19 = icmp ne i32 %17, %18
  br i1 %19, label %20, label %21

20:                                               ; preds = %14
  store i32 0, ptr %3, align 4
  br label %23

21:                                               ; preds = %14
  br label %22

22:                                               ; preds = %21, %10
  store i32 1, ptr %3, align 4
  br label %23

23:                                               ; preds = %22, %20
  %24 = load i32, ptr %3, align 4
  ret i32 %24
}

; Function Attrs: nounwind uwtable
define internal i32 @IDecCheckStatus(ptr noundef %0) #0 {
  %2 = alloca i32, align 4
  %3 = alloca ptr, align 8
  store ptr %0, ptr %3, align 8, !tbaa !10
  %4 = load ptr, ptr %3, align 8, !tbaa !10
  %5 = getelementptr inbounds nuw %struct.WebPIDecoder, ptr %4, i32 0, i32 0
  %6 = load i32, ptr %5, align 8, !tbaa !12
  %7 = icmp eq i32 %6, 7
  br i1 %7, label %8, label %9

8:                                                ; preds = %1
  store i32 3, ptr %2, align 4
  br label %16

9:                                                ; preds = %1
  %10 = load ptr, ptr %3, align 8, !tbaa !10
  %11 = getelementptr inbounds nuw %struct.WebPIDecoder, ptr %10, i32 0, i32 0
  %12 = load i32, ptr %11, align 8, !tbaa !12
  %13 = icmp eq i32 %12, 6
  br i1 %13, label %14, label %15

14:                                               ; preds = %9
  store i32 0, ptr %2, align 4
  br label %16

15:                                               ; preds = %9
  store i32 5, ptr %2, align 4
  br label %16

16:                                               ; preds = %15, %14, %8
  %17 = load i32, ptr %2, align 4
  ret i32 %17
}

; Function Attrs: nounwind uwtable
define i32 @WebPIAppend(ptr noundef %0, ptr noundef %1, i64 noundef %2) #0 {
  %4 = alloca i32, align 4
  %5 = alloca ptr, align 8
  %6 = alloca ptr, align 8
  %7 = alloca i64, align 8
  %8 = alloca i32, align 4
  %9 = alloca i32, align 4
  store ptr %0, ptr %5, align 8, !tbaa !10
  store ptr %1, ptr %6, align 8, !tbaa !28
  store i64 %2, ptr %7, align 8, !tbaa !29
  call void @llvm.lifetime.start.p0(i64 4, ptr %8) #6
  %10 = load ptr, ptr %5, align 8, !tbaa !10
  %11 = icmp eq ptr %10, null
  br i1 %11, label %15, label %12

12:                                               ; preds = %3
  %13 = load ptr, ptr %6, align 8, !tbaa !28
  %14 = icmp eq ptr %13, null
  br i1 %14, label %15, label %16

15:                                               ; preds = %12, %3
  store i32 2, ptr %4, align 4
  store i32 1, ptr %9, align 4
  br label %39

16:                                               ; preds = %12
  %17 = load ptr, ptr %5, align 8, !tbaa !10
  %18 = call i32 @IDecCheckStatus(ptr noundef %17)
  store i32 %18, ptr %8, align 4, !tbaa !39
  %19 = load i32, ptr %8, align 4, !tbaa !39
  %20 = icmp ne i32 %19, 5
  br i1 %20, label %21, label %23

21:                                               ; preds = %16
  %22 = load i32, ptr %8, align 4, !tbaa !39
  store i32 %22, ptr %4, align 4
  store i32 1, ptr %9, align 4
  br label %39

23:                                               ; preds = %16
  %24 = load ptr, ptr %5, align 8, !tbaa !10
  %25 = getelementptr inbounds nuw %struct.WebPIDecoder, ptr %24, i32 0, i32 5
  %26 = call i32 @CheckMemBufferMode(ptr noundef %25, i32 noundef 1)
  %27 = icmp ne i32 %26, 0
  br i1 %27, label %29, label %28

28:                                               ; preds = %23
  store i32 2, ptr %4, align 4
  store i32 1, ptr %9, align 4
  br label %39

29:                                               ; preds = %23
  %30 = load ptr, ptr %5, align 8, !tbaa !10
  %31 = load ptr, ptr %6, align 8, !tbaa !28
  %32 = load i64, ptr %7, align 8, !tbaa !29
  %33 = call i32 @AppendToMemBuffer(ptr noundef %30, ptr noundef %31, i64 noundef %32)
  %34 = icmp ne i32 %33, 0
  br i1 %34, label %36, label %35

35:                                               ; preds = %29
  store i32 1, ptr %4, align 4
  store i32 1, ptr %9, align 4
  br label %39

36:                                               ; preds = %29
  %37 = load ptr, ptr %5, align 8, !tbaa !10
  %38 = call i32 @IDecode(ptr noundef %37)
  store i32 %38, ptr %4, align 4
  store i32 1, ptr %9, align 4
  br label %39

39:                                               ; preds = %36, %35, %28, %21, %15
  call void @llvm.lifetime.end.p0(i64 4, ptr %8) #6
  %40 = load i32, ptr %4, align 4
  ret i32 %40
}