; Function Attrs: nounwind uwtable
define i32 @WebPIAppend(ptr noundef %0, ptr noundef readonly captures(address_is_null) %1, i64 noundef %2) local_unnamed_addr #0 {
  %4 = icmp eq ptr %0, null
  %5 = icmp eq ptr %1, null
  %or.cond = or i1 %4, %5
  br i1 %or.cond, label %CheckMemBufferMode.exit.thread, label %6

6:                                                ; preds = %3
  %.val = load i32, ptr %0, align 8, !tbaa !3
  %switch.selectcmp.i = icmp eq i32 %.val, 6
  %switch.select.i = select i1 %switch.selectcmp.i, i32 0, i32 5
  %switch.selectcmp3.i = icmp eq i32 %.val, 7
  %switch.select4.i = select i1 %switch.selectcmp3.i, i32 3, i32 %switch.select.i
  %.not = icmp eq i32 %switch.select4.i, 5
  br i1 %.not, label %7, label %CheckMemBufferMode.exit.thread

7:                                                ; preds = %6
  %8 = getelementptr inbounds nuw i8, ptr %0, i64 296
  %9 = load i32, ptr %8, align 8, !tbaa !20
  switch i32 %9, label %CheckMemBufferMode.exit.thread [
    i32 0, label %10
    i32 1, label %CheckMemBufferMode.exit
  ]

10:                                               ; preds = %7
  store i32 1, ptr %8, align 8, !tbaa !20
  br label %CheckMemBufferMode.exit

CheckMemBufferMode.exit:                          ; preds = %7, %10
  %11 = getelementptr inbounds nuw i8, ptr %0, i64 128
  %12 = load ptr, ptr %11, align 8, !tbaa !25
  %13 = icmp eq i32 %.val, 0
  br i1 %13, label %NeedCompressedAlpha.exit.i, label %14

14:                                               ; preds = %CheckMemBufferMode.exit
  %15 = getelementptr inbounds nuw i8, ptr %0, i64 120
  %16 = load i32, ptr %15, align 8, !tbaa !26
  %.not.i.i = icmp eq i32 %16, 0
  br i1 %.not.i.i, label %17, label %NeedCompressedAlpha.exit.i

17:                                               ; preds = %14
  %18 = getelementptr inbounds nuw i8, ptr %12, i64 2968
  %19 = load ptr, ptr %18, align 8, !tbaa !32
  %.not5.i.i = icmp eq ptr %19, null
  br i1 %.not5.i.i, label %NeedCompressedAlpha.exit.i, label %20

20:                                               ; preds = %17
  %21 = getelementptr inbounds nuw i8, ptr %12, i64 2984
  %22 = load i32, ptr %21, align 8, !tbaa !45
  %.not6.i.i = icmp ne i32 %22, 0
  br label %NeedCompressedAlpha.exit.i

NeedCompressedAlpha.exit.i:                       ; preds = %20, %17, %14, %CheckMemBufferMode.exit
  %.0.i.i = phi i1 [ true, %CheckMemBufferMode.exit ], [ true, %14 ], [ true, %17 ], [ %.not6.i.i, %20 ]
  %23 = getelementptr inbounds nuw i8, ptr %0, i64 328
  %24 = load ptr, ptr %23, align 8, !tbaa !27
  %25 = icmp eq ptr %24, null
  br i1 %25, label %30, label %26

26:                                               ; preds = %NeedCompressedAlpha.exit.i
  %27 = getelementptr inbounds nuw i8, ptr %0, i64 304
  %28 = load i64, ptr %27, align 8, !tbaa !46
  %29 = getelementptr inbounds nuw i8, ptr %24, i64 %28
  br label %30

30:                                               ; preds = %26, %NeedCompressedAlpha.exit.i
  %31 = phi ptr [ %29, %26 ], [ null, %NeedCompressedAlpha.exit.i ]
  br i1 %.0.i.i, label %35, label %32

32:                                               ; preds = %30
  %33 = getelementptr inbounds nuw i8, ptr %12, i64 2968
  %34 = load ptr, ptr %33, align 8, !tbaa !32
  br label %35

35:                                               ; preds = %32, %30
  %36 = phi ptr [ %34, %32 ], [ %31, %30 ]
  %37 = icmp ugt i64 %2, 4294967286
  br i1 %37, label %CheckMemBufferMode.exit.thread, label %38

38:                                               ; preds = %35
  %39 = getelementptr i8, ptr %0, i64 312
  %40 = load i64, ptr %39, align 8, !tbaa !47
  %41 = add i64 %40, %2
  %42 = getelementptr inbounds nuw i8, ptr %0, i64 320
  %43 = load i64, ptr %42, align 8, !tbaa !48
  %44 = icmp ugt i64 %41, %43
  %45 = ptrtoint ptr %31 to i64
  br i1 %44, label %46, label %60

46:                                               ; preds = %38
  %47 = ptrtoint ptr %36 to i64
  %48 = sub i64 %45, %47
  %49 = getelementptr i8, ptr %0, i64 304
  %.val.i = load i64, ptr %49, align 8, !tbaa !46
  %50 = sub i64 %40, %.val.i
  %51 = add i64 %50, %48
  %52 = add nuw nsw i64 %2, 4095
  %53 = add i64 %52, %51
  %54 = and i64 %53, -4096
  %55 = tail call ptr @WebPSafeMalloc(i64 noundef %54, i64 noundef 1) #7
  %.not52.i = icmp eq ptr %55, null
  br i1 %.not52.i, label %CheckMemBufferMode.exit.thread, label %56

56:                                               ; preds = %46
  %.not51.i = icmp eq ptr %36, null
  br i1 %.not51.i, label %58, label %57

57:                                               ; preds = %56
  tail call void @llvm.memcpy.p0.p0.i64(ptr nonnull align 1 %55, ptr nonnull align 1 %36, i64 %51, i1 false)
  br label %58

58:                                               ; preds = %57, %56
  %59 = load ptr, ptr %23, align 8, !tbaa !27
  tail call void @WebPSafeFree(ptr noundef %59) #7
  store ptr %55, ptr %23, align 8, !tbaa !27
  store i64 %54, ptr %42, align 8, !tbaa !48
  store i64 %48, ptr %49, align 8, !tbaa !46
  store i64 %51, ptr %39, align 8, !tbaa !47
  br label %60

60:                                               ; preds = %58, %38
  %61 = phi i64 [ %51, %58 ], [ %40, %38 ]
  %62 = phi ptr [ %55, %58 ], [ %24, %38 ]
  %63 = getelementptr inbounds nuw i8, ptr %62, i64 %61
  tail call void @llvm.memcpy.p0.p0.i64(ptr align 1 %63, ptr nonnull readonly align 1 %1, i64 %2, i1 false)
  %64 = load i64, ptr %39, align 8, !tbaa !47
  %65 = add i64 %64, %2
  store i64 %65, ptr %39, align 8, !tbaa !47
  %66 = load ptr, ptr %23, align 8, !tbaa !27
  %67 = getelementptr inbounds nuw i8, ptr %0, i64 304
  %68 = load i64, ptr %67, align 8, !tbaa !46
  %69 = getelementptr inbounds nuw i8, ptr %66, i64 %68
  %70 = ptrtoint ptr %69 to i64
  %71 = sub i64 %70, %45
  tail call fastcc void @DoRemap(ptr noundef nonnull %0, i64 noundef %71)
  %72 = tail call fastcc i32 @IDecode(ptr noundef %0)
  br label %CheckMemBufferMode.exit.thread

CheckMemBufferMode.exit.thread:                   ; preds = %7, %46, %35, %6, %3, %60
  %.0 = phi i32 [ %72, %60 ], [ 2, %3 ], [ %switch.select4.i, %6 ], [ 1, %35 ], [ 1, %46 ], [ 2, %7 ]
  ret i32 %.0
}